(dp0
S'MIROC4h'
p1
(dp2
S'r2i1p1'
p3
(dp4
S'time_indx'
p5
I429
sS'time_rel'
p6
cnumpy.core.multiarray
scalar
p7
(cnumpy
dtype
p8
(S'f8'
p9
I0
I1
tp10
Rp11
(I3
S'<'
p12
NNNI-1
I-1
I0
tp13
bS'\x00\x00\x00\x00\xc0\x83\xc9@'
p14
tp15
Rp16
sS'ver'
p17
S'ver-v20110907'
p18
sS'time_comp'
p19
S'86-10-16 12:0:0.0'
p20
ssS'r1i1p1'
p21
(dp22
g5
I722
sg6
g7
(g11
S'\x00\x00\x00\x00\xa0u\xd5@'
p23
tp24
Rp25
sg17
S'ver-v20110907'
p26
sg19
S'111-3-16 12:0:0.0'
p27
ssS'r3i1p1'
p28
(dp29
g5
I721
sg6
g7
(g11
S'\x00\x00\x00\x00@n\xd5@'
p30
tp31
Rp32
sg17
S'ver-v20110907'
p33
sg19
S'111-2-15 0:0:0.0'
p34
sssS'ACCESS1-3'
p35
(dp36
S'r1i1p1'
p37
(dp38
S'time_indx'
p39
I0
sS'time_rel'
p40
g7
(g11
S'\x00\x00\x00\x00\x085\xf6@'
p41
tp42
Rp43
sS'ver'
p44
S'ver-v1'
p45
sS'time_comp'
p46
S'250-1-16 12:0:0.0'
p47
sssS'IPSL-CM5B-LR'
p48
(dp49
S'r1i1p1'
p50
(dp51
S'time_indx'
p52
I240
sS'time_rel'
p53
g7
(g11
S'\x00\x00\x00\x00\x80\x93\xbc@'
p54
tp55
Rp56
sS'ver'
p57
S'ver-v20120430'
p58
sS'time_comp'
p59
S'1850-1-16 12:0:0.0'
p60
sssS'MIROC5'
p61
(dp62
S'r2i1p1'
p63
(dp64
S'time_indx'
p65
I951
sS'time_rel'
p66
g7
(g11
S'\x00\x00\x00\x00\x00C\xdc@'
p67
tp68
Rp69
sS'ver'
p70
S'ver-v20111202'
p71
sS'time_comp'
p72
S'2079-4-16 0:0:0.0'
p73
ssS'r1i1p1'
p74
(dp75
g65
I5103
sg66
g7
(g11
S'\x00\x00\x00\x00\xf0\xf2\x02A'
p76
tp77
Rp78
sg70
S'ver-v20120112'
p79
sg72
S'2425-4-16 0:0:0.0'
p80
ssS'r4i1p1'
p81
(dp82
g65
I3376
sg66
g7
(g11
S'\x00\x00\x00\x00\xc8\x12\xf9@'
p83
tp84
Rp85
sg70
S'ver-v20120112'
p86
sg72
S'2281-5-16 12:0:0.0'
p87
ssS'r3i1p1'
p88
(dp89
g65
I2172
sg66
g7
(g11
S'\x00\x00\x00\x00\x08"\xf0@'
p90
tp91
Rp92
sg70
S'ver-v20111202'
p93
sg72
S'2181-1-16 12:0:0.0'
p94
ssS'r5i1p1'
p95
(dp96
g65
I313
sg66
g7
(g11
S'\x00\x00\x00\x00\x80\x9f\xc2@'
p97
tp98
Rp99
sg70
S'ver-v20120608'
p100
sg72
S'2026-2-15 0:0:0.0'
p101
sssS'CanCM4'
p102
(dp103
sS'FIO-ESM'
p104
(dp105
S'r2i1p1'
p106
(dp107
S'time_indx'
p108
I4585
sS'time_rel'
p109
g7
(g11
S'\x00\x00\x00\x00\x98\x06\x01A'
p110
tp111
Rp112
sS'time_comp'
p113
S'783-2-15 0:0:0.0'
p114
ssS'r1i1p1'
p115
(dp116
g108
I4400
sg109
g7
(g11
S'\x00\x00\x00\x00\xc0V\x00A'
p117
tp118
Rp119
sg113
S'767-9-16 0:0:0.0'
p120
ssS'r3i1p1'
p121
(dp122
g108
I0
sg109
g7
(g11
S'\x00\x00\x00\x00\x00\x00/@'
p123
tp124
Rp125
sg113
S'401-1-16 12:0:0.0'
p126
sssS'CMCC-CMS'
p127
(dp128
S'r1i1p1'
p129
(dp130
S'time_indx'
p131
I1231
sS'time_rel'
p132
g7
(g11
S'\x00\x00\x00\x00PM\xe2@'
p133
tp134
Rp135
sS'ver'
p136
S'ver-v20120717'
p137
sS'time_comp'
p138
S'3786-8-16 12:0:0.0'
p139
sssS'MIROC-ESM'
p140
(dp141
S'r2i1p1'
p142
(dp143
S'time_indx'
p144
I240
sS'time_rel'
p145
g7
(g11
S'\x00\x00\x00\x00\x80\x97\xbc@'
p146
tp147
Rp148
sS'time_comp'
p149
S'1820-1-16 12:0:0.0'
p150
ssS'r1i1p1'
p151
(dp152
g144
I969
sg145
g7
(g11
S'\x00\x00\x00\x00 \xd1\xdc@'
p153
tp154
Rp155
sg149
S'1880-10-16 12:0:0.0'
p156
ssS'r3i1p1'
p157
(dp158
g144
I601
sg145
g7
(g11
S'\x00\x00\x00\x00\xc0\xe0\xd1@'
p159
tp160
Rp161
sg149
S'1850-2-15 0:0:0.0'
p162
sssS'HadGEM2-ES'
p163
(dp164
S'r2i1p1'
p165
(dp166
S'time_indx'
p167
I3735
sS'time_rel'
p168
g7
(g11
S'\x00\x00\x00\x00\x10\\\xfb@'
p169
tp170
Rp171
sS'ver'
p172
S'ver-1'
p173
sS'time_comp'
p174
S'2171-3-16 0:0:0.0'
p175
ssS'r1i1p1'
p176
(dp177
g167
I4119
sg168
g7
(g11
S'\x00\x00\x00\x00\x10,\xfe@'
p178
tp179
Rp180
sg172
S'ver-1'
p181
sg174
S'2203-3-16 0:0:0.0'
p182
ssS'r4i1p1'
p183
(dp184
g167
I3419
sg168
g7
(g11
S'\x00\x00\x00\x00\x90\x0b\xf9@'
p185
tp186
Rp187
sg172
S'ver-1'
p188
sg174
S'2144-11-16 0:0:0.0'
p189
ssS'r3i1p1'
p190
(dp191
g167
I1200
sg168
g7
(g11
S'\x00\x00\x00\x00\xe0\x95\xe1@'
p192
tp193
Rp194
sg172
S'ver-1'
p195
sg174
S'1959-12-16 0:0:0.0'
p196
sssS'CanESM2'
p197
(dp198
S'r2i1p1'
p199
(dp200
S'time_indx'
p201
I3073
sS'time_rel'
p202
g7
(g11
S'\x00\x00\x00\x00p\xc3\x02A'
p203
tp204
Rp205
sS'time_comp'
p206
S'2271-2-15 0:0:0.0'
p207
ssS'r1i1p1'
p208
(dp209
g201
I3624
sg202
g7
(g11
S'\x00\x00\x00\x004\xcf\x04A'
p210
tp211
Rp212
sg206
S'2317-1-16 12:0:0.0'
p213
ssS'r4i1p1'
p214
(dp215
g201
I1872
sg202
g7
(g11
S'\x00\x00\x00\x00\xc8\x9b\xfc@'
p216
tp217
Rp218
sg206
S'2171-1-16 12:0:0.0'
p219
ssS'r3i1p1'
p220
(dp221
g201
I2491
sg202
g7
(g11
S'\x00\x00\x00\x00<\x9a\x00A'
p222
tp223
Rp224
sg206
S'2222-8-16 12:0:0.0'
p225
ssS'r5i1p1'
p226
(dp227
g201
I1272
sg202
g7
(g11
S"\x00\x00\x00\x00('\xf8@"
p228
tp229
Rp230
sg206
S'2121-1-16 12:0:0.0'
p231
sssS'FGOALS-s2'
p232
(dp233
S'r2i1p1'
p234
(dp235
S'time_indx'
p236
I117
sS'time_rel'
p237
g7
(g11
S'\x00\x00\x00\x00\x00\xeb\xab@'
p238
tp239
Rp240
sS'ver'
p241
S'ver-v2'
p242
sS'time_comp'
p243
S'1859-10-16 12:0:0.0'
p244
ssS'r1i1p1'
p245
(dp246
g236
I0
sg237
g7
(g11
S'\x00\x00\x00\x00\x00\x00/@'
p247
tp248
Rp249
sg241
S'ver-v2'
p250
sg243
S'1850-1-16 12:0:0.0'
p251
ssS'r3i1p1'
p252
(dp253
g236
I215
sg237
g7
(g11
S'\x00\x00\x00\x00\x80\x9a\xb9@'
p254
tp255
Rp256
sg241
S'ver-v2'
p257
sg243
S'1867-12-16 12:0:0.0'
p258
sssS'MPI-ESM-P'
p259
(dp260
S'r2i1p1'
p261
(dp262
S'time_indx'
p263
I4880
sS'time_rel'
p264
g7
(g11
S'\x00\x00\x00\x00\x18"\x02A'
p265
tp266
Rp267
sS'ver'
p268
S'ver-1'
p269
sS'time_comp'
p270
S'2256-9-16 0:0:0.0'
p271
ssS'r1i1p1'
p272
(dp273
g263
I6052
sg264
g7
(g11
S'\x00\x00\x00\x00\xcc|\x06A'
p274
tp275
Rp276
sg268
S'ver-1'
p277
sg270
S'2354-5-16 12:0:0.0'
p278
sssS'MPI-ESM-MR'
p279
(dp280
S'r2i1p1'
p281
(dp282
S'time_indx'
p283
I4641
sS'time_rel'
p284
g7
(g11
S'\x00\x00\x00\x00\xc4>\x01A'
p285
tp286
Rp287
sS'time_comp'
p288
S'2236-10-16 12:0:0.0'
p289
ssS'r1i1p1'
p290
(dp291
g283
I3197
sg284
g7
(g11
S'\x00\x00\x00\x00\x90\xc2\xf7@'
p292
tp293
Rp294
sg288
S'2116-6-16 0:0:0.0'
p295
ssS'r3i1p1'
p296
(dp297
g283
I4133
sg284
g7
(g11
S'\x00\x00\x00\x00 \xb7\xfe@'
p298
tp299
Rp300
sg288
S'2194-6-16 0:0:0.0'
p301
sssS'CSIRO-Mk3-6-0'
p302
(dp303
S'r9i1p1'
p304
(dp305
S'time_indx'
p306
I2224
sS'time_rel'
p307
g7
(g11
S'\x00\x00\x00\x00\xc8\x84\xf0@'
p308
tp309
Rp310
sS'time_comp'
p311
S'186-5-16 12:0:0.0'
p312
ssS'r2i1p1'
p313
(dp314
g306
I1066
sg307
g7
(g11
S'\x00\x00\x00\x00\xc0\xad\xdf@'
p315
tp316
Rp317
sg311
S'89-11-16 0:0:0.0'
p318
ssS'r1i1p1'
p319
(dp320
g306
I928
sg307
g7
(g11
S'\x00\x00\x00\x00 \x94\xdb@'
p321
tp322
Rp323
sg311
S'78-5-16 12:0:0.0'
p324
ssS'r6i1p1'
p325
(dp326
g306
I1936
sg307
g7
(g11
S'\x00\x00\x00\x00\x90\xc2\xec@'
p327
tp328
Rp329
sg311
S'162-5-16 12:0:0.0'
p330
ssS'r4i1p1'
p331
(dp332
g306
I1392
sg307
g7
(g11
S'\x00\x00\x00\x00p\xae\xe4@'
p333
tp334
Rp335
sg311
S'117-1-16 12:0:0.0'
p336
ssS'r10i1p1'
p337
(dp338
g306
I2389
sg307
g7
(g11
S'\x00\x00\x00\x00\x80\xbe\xf1@'
p339
tp340
Rp341
sg311
S'200-2-15 0:0:0.0'
p342
ssS'r5i1p1'
p343
(dp344
g306
I1512
sg307
g7
(g11
S'\x00\x00\x00\x00\xb0v\xe6@'
p345
tp346
Rp347
sg311
S'127-1-16 12:0:0.0'
p348
ssS'r8i1p1'
p349
(dp350
g306
I2016
sg307
g7
(g11
S'\x00\x00\x00\x00\xf0\xf2\xed@'
p351
tp352
Rp353
sg311
S'169-1-16 12:0:0.0'
p354
sssS'CESM1-BGC'
p355
(dp356
S'r1i1p1'
p357
(dp358
S'time_indx'
p359
I626
sS'time_rel'
p360
g7
(g11
S'\x00\x00\x00\x00\xf0M\xeb@'
p361
tp362
Rp363
sS'ver'
p364
S'ver-v20120625'
p365
sS'time_comp'
p366
S'153-3-16 12:0:0.0'
p367
sssS'CESM1-FASTCHEM'
p368
(dp369
S'r2i1p1'
p370
(dp371
S'time_indx'
p372
I680
sS'time_rel'
p373
g7
(g11
S'\x00\x00\x00\x00\x00\x95\xe6@'
p374
tp375
Rp376
sS'ver'
p377
S'ver-v20120724'
p378
sS'time_comp'
p379
S'126-9-16 0:0:0.0'
p380
ssS'r1i1p1'
p381
(dp382
g372
I414
sg373
g7
(g11
S'\x00\x00\x00\x00\x90\xa1\xe2@'
p383
tp384
Rp385
sg377
S'ver-v20120724'
p386
sg379
S'104-7-16 12:0:0.0'
p387
ssS'r3i1p1'
p388
(dp389
g372
I2197
sg373
g7
(g11
S'\x00\x00\x00\x00`\x8e\xf6@'
p390
tp391
Rp392
sg377
S'ver-v20120724'
p393
sg379
S'253-2-15 0:0:0.0'
p394
sssS'GISS-E2-R-CC'
p395
(dp396
S'r1i1p1'
p397
(dp398
S'time_indx'
p399
I959
sS'time_rel'
p400
g7
(g11
S'\x00\x00\x00\x00 \x80\xdc@'
p401
tp402
Rp403
sS'ver'
p404
S'ver-v20120720'
p405
sS'time_comp'
p406
S'2129-12-16 12:0:0.0'
p407
sssS'BNU-ESM'
p408
(dp409
S'r1i1p1'
p410
(dp411
S'time_indx'
p412
I4829
sS'time_rel'
p413
g7
(g11
S'\x00\x00\x00\x00\x80\xee\x01A'
p414
tp415
Rp416
sS'time_comp'
p417
S'1852-6-16 0:0:0.0'
p418
sssS'CCSM4'
p419
(dp420
S'r2i1p1'
p421
(dp422
S'time_indx'
p423
I2679
sS'time_rel'
p424
g7
(g11
S'\x00\x00\x00\x00\xf0\xcb\x16A'
p425
tp426
Rp427
sS'time_comp'
p428
S'1023-4-16 0:0:0.0'
p429
ssS'r1i1p1'
p430
(dp431
g423
I1644
sg424
g7
(g11
S'\x00\x00\x00\x00\x12\xe0\x14A'
p432
tp433
Rp434
sg428
S'937-1-16 12:0:0.0'
p435
ssS'r4i1p1'
p436
(dp437
g423
I1174
sg424
g7
(g11
S'\x00\x00\x00\x00\xb0\x00\x14A'
p438
tp439
Rp440
sg428
S'897-11-16 0:0:0.0'
p441
ssS'r3i1p1'
p442
(dp443
g423
I761
sg424
g7
(g11
S'\x00\x00\x00\x00d<\x13A'
p444
tp445
Rp446
sg428
S'863-6-16 0:0:0.0'
p447
ssS'r6i1p1'
p448
(dp449
g423
I1841
sg424
g7
(g11
S'\x00\x00\x00\x00\xac=\x15A'
p450
tp451
Rp452
sg428
S'953-6-16 0:0:0.0'
p453
ssS'r5i1p1'
p454
(dp455
g423
I2196
sg424
g7
(g11
S'\x00\x00\x00\x00j\xe6\x15A'
p456
tp457
Rp458
sg428
S'983-1-16 12:0:0.0'
p459
sssS'GFDL-ESM2G'
p460
(dp461
S'r1i1p1'
p462
(dp463
S'time_indx'
p464
I5950
sS'time_rel'
p465
g7
(g11
S'\x00\x00\x00\x00\x10\x18\x06A'
p466
tp467
Rp468
sS'time_comp'
p469
S'496-11-16 0:0:0.0'
p470
sssS'EC-EARTH'
p471
(dp472
S'r7i1p1'
p473
(dp474
S'time_indx'
p475
I1081
sS'time_rel'
p476
g7
(g11
S'\x00\x00\x00\x00\xa0\x12\xe0@'
p477
tp478
Rp479
sS'ver'
p480
S'ver-v20120515'
p481
sS'time_comp'
p482
S'2190-2-15 0:0:0.0'
p483
ssS'r14i1p1'
p484
(dp485
g475
I2400
sg476
g7
(g11
S'\x00\x00\x00\x00x\xd6\xf1@'
p486
tp487
Rp488
sg480
S'ver-v20120516'
p489
sg482
S'2300-1-16 12:0:0.0'
p490
ssS'r12i1p1'
p491
(dp492
g475
I2038
sg476
g7
(g11
S'\x00\x00\x00\x00\xa0K\xee@'
p493
tp494
Rp495
sg480
S'ver-v20120516'
p496
sg482
S'2269-11-16 0:0:0.0'
p497
sssS'GFDL-ESM2M'
p498
(dp499
S'r1i1p1'
p500
(dp501
S'time_indx'
p502
I3089
sS'time_rel'
p503
g7
(g11
S'\x00\x00\x00\x000\xf1\xf6@'
p504
tp505
Rp506
sS'ver'
p507
S'ver-1'
p508
sS'time_comp'
p509
S'258-6-16 0:0:0.0'
p510
sssS'NorESM1-M'
p511
(dp512
S'r2i1p1'
p513
(dp514
S'time_indx'
p515
I375
sS'time_rel'
p516
g7
(g11
S'\x00\x00\x00\x00\xecD\x10A'
p517
tp518
Rp519
sS'time_comp'
p520
S'731-4-16 0:0:0.0'
p521
ssS'r1i1p1'
p522
(dp523
g515
I0
sg516
g7
(g11
S'\x00\x00\x00\x00t%\x0fA'
p524
tp525
Rp526
sg520
S'700-1-16 12:0:0.0'
p527
ssS'r3i1p1'
p528
(dp529
g515
I746
sg516
g7
(g11
S'\x00\x00\x00\x00>\xf5\x10A'
p530
tp531
Rp532
sg520
S'762-3-16 12:0:0.0'
p533
sssS'CESM1-WACCM'
p534
(dp535
sS'IPSL-CM5A-MR'
p536
(dp537
S'r2i1p1'
p538
(dp539
S'time_indx'
p540
I824
sS'time_rel'
p541
g7
(g11
S'\x00\x00\x00\x00\x80}\xd8@'
p542
tp543
Rp544
sS'ver'
p545
S'ver-v20120430'
p546
sS'time_comp'
p547
S'1868-9-16 0:0:0.0'
p548
ssS'r1i1p1'
p549
(dp550
g540
I780
sg541
g7
(g11
S'\x00\x00\x00\x00 /\xd7@'
p551
tp552
Rp553
sg545
S'ver-v20111119'
p554
sg547
S'1865-1-16 12:0:0.0'
p555
ssS'r3i1p1'
p556
(dp557
g540
I840
sg541
g7
(g11
S'\x00\x00\x00\x00`\xf7\xd8@'
p558
tp559
Rp560
sg545
S'ver-v20120804'
p561
sg547
S'1870-1-16 12:0:0.0'
p562
sssS'IPSL-CM5A-LR'
p563
(dp564
S'r2i1p1'
p565
(dp566
S'time_indx'
p567
I11123
sS'time_rel'
p568
g7
(g11
S'\x00\x00\x00\x00\x8e\xa6\x14A'
p569
tp570
Rp571
sS'time_comp'
p572
S'2726-12-16 12:0:0.0'
p573
ssS'r1i1p1'
p574
(dp575
g567
I11113
sg568
g7
(g11
S'\x00\x00\x00\x00\xcc\xa1\x14A'
p576
tp577
Rp578
sg572
S'2726-2-15 0:0:0.0'
p579
sssS'GFDL-CM3'
p580
(dp581
S'r2i1p1'
p582
(dp583
S'time_indx'
p584
I628
sS'time_rel'
p585
g7
(g11
S'\x00\x00\x00\x00\xe0\xaa\xd2@'
p586
tp587
Rp588
sS'time_comp'
p589
S'53-5-16 12:0:0.0'
p590
ssS'r1i1p1'
p591
(dp592
g584
I0
sg585
g7
(g11
S'\x00\x00\x00\x00\x00\x00/@'
p593
tp594
Rp595
sg589
S'1-1-16 12:0:0.0'
p596
ssS'r4i1p1'
p597
(dp598
g584
I1848
sg585
g7
(g11
S'\x00\x00\x00\x000t\xeb@'
p599
tp600
Rp601
sg589
S'155-1-16 12:0:0.0'
p602
ssS'r3i1p1'
p603
(dp604
g584
I1243
sg585
g7
(g11
S'\x00\x00\x00\x00\xd0w\xe2@'
p605
tp606
Rp607
sg589
S'104-8-16 12:0:0.0'
p608
ssS'r5i1p1'
p609
(dp610
g584
I2483
sg585
g7
(g11
S'\x00\x00\x00\x008q\xf2@'
p611
tp612
Rp613
sg589
S'207-12-16 12:0:0.0'
p614
sssS'CNRM-CM5'
p615
(dp616
S'r7i1p1'
p617
(dp618
S'time_indx'
p619
I4200
sS'time_rel'
p620
g7
(g11
S'\x00\x00\x00\x00\xa86\xff@'
p621
tp622
Rp623
sS'time_comp'
p624
S'2200-1-16 12:0:0.0'
p625
ssS'r9i1p1'
p626
(dp627
g619
I5400
sg620
g7
(g11
S'\x00\x00\x00\x00\xb4\x10\x04A'
p628
tp629
Rp630
sg624
S'2300-1-16 12:0:0.0'
p631
ssS'r2i1p1'
p632
(dp633
g619
I1198
sg620
g7
(g11
S'\x00\x00\x00\x00\xc0\xcf\xe1@'
p634
tp635
Rp636
sg624
S'1949-11-16 0:0:0.0'
p637
ssS'r1i1p1'
p638
(dp639
g619
I4800
sg620
g7
(g11
S'\x00\x00\x00\x00\x04\xd6\x01A'
p640
tp641
Rp642
sg624
S'2250-1-16 12:0:0.0'
p643
ssS'r10i1p1'
p644
(dp645
g619
I5807
sg620
g7
(g11
S'\x00\x00\x00\x00\xcc\x93\x05A'
p646
tp647
Rp648
sg624
S'2333-12-16 12:0:0.0'
p649
ssS'r4i1p1'
p650
(dp651
g619
I2400
sg620
g7
(g11
S'\x00\x00\x00\x00\x88\xd6\xf1@'
p652
tp653
Rp654
sg624
S'2050-1-16 12:0:0.0'
p655
ssS'r3i1p1'
p656
(dp657
g619
I1802
sg620
g7
(g11
S'\x00\x00\x00\x00\xb0\xc9\xea@'
p658
tp659
Rp660
sg624
S'2000-3-16 12:0:0.0'
p661
ssS'r6i1p1'
p662
(dp663
g619
I3607
sg620
g7
(g11
S'\x00\x00\x00\x00\x88\xce\xfa@'
p664
tp665
Rp666
sg624
S'2150-8-16 12:0:0.0'
p667
ssS'r5i1p1'
p668
(dp669
g619
I2999
sg620
g7
(g11
S'\x00\x00\x00\x00\xf8I\xf6@'
p670
tp671
Rp672
sg624
S'2099-12-16 12:0:0.0'
p673
ssS'r8i1p1'
p674
(dp675
g619
I0
sg620
g7
(g11
S'\x00\x00\x00\x00\x00\x00/@'
p676
tp677
Rp678
sg624
S'1850-1-16 12:0:0.0'
p679
sssS'GISS-E2-H'
p680
(dp681
S'r2i1p1'
p682
(dp683
S'time_indx'
p684
I3019
sS'time_rel'
p685
g7
(g11
S'\x00\x00\x00\x00"\xa9\x1bA'
p686
tp687
Rp688
sS'ver'
p689
S'ver-1'
p690
sS'time_comp'
p691
S'2421-8-16 12:0:0.0'
p692
ssS'r1i1p1'
p693
(dp694
g684
I2896
sg685
g7
(g11
S'\x00\x00\x00\x00\xaan\x1bA'
p695
tp696
Rp697
sg689
S'ver-1'
p698
sg691
S'2411-5-16 12:0:0.0'
p699
ssS'r4i1p1'
p700
(dp701
g684
I3584
sg685
g7
(g11
S'\x00\x00\x00\x00\xa8\xb5\x1cA'
p702
tp703
Rp704
sg689
S'ver-1'
p705
sg691
S'2468-9-16 0:0:0.0'
p706
ssS'r3i1p1'
p707
(dp708
g684
I3360
sg685
g7
(g11
S'\x00\x00\x00\x006K\x1cA'
p709
tp710
Rp711
sg689
S'ver-1'
p712
sg691
S'2450-1-16 12:0:0.0'
p713
ssS'r5i1p1'
p714
(dp715
g684
I3840
sg685
g7
(g11
S'\x00\x00\x00\x00V/\x1dA'
p716
tp717
Rp718
sg689
S'ver-1'
p719
sg691
S'2490-1-16 12:0:0.0'
p720
sssS'MIROC-ESM-CHEM'
p721
(dp722
S'r1i1p1'
p723
(dp724
S'time_indx'
p725
I49
sS'time_rel'
p726
g7
(g11
S'\x00\x00\x00\x00\x00\x88\x97@'
p727
tp728
Rp729
sS'ver'
p730
S'ver-v20111004'
p731
sS'time_comp'
p732
S'1850-2-15 0:0:0.0'
p733
sssS'NorESM1-ME'
p734
(dp735
sS'CMCC-CM'
p736
(dp737
S'r1i1p1'
p738
(dp739
S'time_indx'
p740
I3741
sS'time_rel'
p741
g7
(g11
S'\x00\x00\x00\x00x\xcd\xfb@'
p742
tp743
Rp744
sS'ver'
p745
S'ver-v20120514'
p746
sS'time_comp'
p747
S'1861-10-16 12:0:0.0'
p748
sssS'GISS-E2-R'
p749
(dp750
S'r2i1p1'
p751
(dp752
S'time_indx'
p753
I4019
sS'time_rel'
p754
g7
(g11
S'\x00\x00\x00\x00\xcc\x84\x0eA'
p755
tp756
Rp757
sS'ver'
p758
S'ver-1'
p759
sS'time_comp'
p760
S'4015-12-16 12:0:0.0'
p761
ssS'r1i1p1'
p762
(dp763
g753
I3600
sg754
g7
(g11
S'\x00\x00\x00\x00\x8c\xf6\x0cA'
p764
tp765
Rp766
sg758
S'ver-1'
p767
sg760
S'3981-1-16 12:0:0.0'
p768
ssS'r4i1p1'
p769
(dp770
g753
I4478
sg754
g7
(g11
S'\x00\x00\x00\x00\x86\x1c\x10A'
p771
tp772
Rp773
sg758
S'ver-1'
p774
sg760
S'4054-3-16 12:0:0.0'
p775
ssS'r3i1p1'
p776
(dp777
g753
I4165
sg754
g7
(g11
S'\x00\x00\x00\x00\x90\x0f\x0fA'
p778
tp779
Rp780
sg758
S'ver-1'
p781
sg760
S'4028-2-15 0:0:0.0'
p782
ssS'r6i1p1'
p783
(dp784
g753
I5432
sg754
g7
(g11
S'\x00\x00\x00\x00\xf0\xe1\x11A'
p785
tp786
Rp787
sg758
S'ver-1'
p788
sg760
S'4133-9-16 0:0:0.0'
p789
ssS'r5i1p1'
p790
(dp791
g753
I4516
sg754
g7
(g11
S'\x00\x00\x00\x00\x96.\x10A'
p792
tp793
Rp794
sg758
S'ver-1'
p795
sg760
S'4057-5-16 12:0:0.0'
p796
sssS'HadGEM2-CC'
p797
(dp798
S'r2i1p1'
p799
(dp800
S'time_indx'
p801
I782
sS'time_rel'
p802
g7
(g11
S'\x00\x00\x00\x00\xc0\xec\xd6@'
p803
tp804
Rp805
sS'ver'
p806
S'ver-1'
p807
sS'time_comp'
p808
S'1925-2-16 0:0:0.0'
p809
ssS'r1i1p1'
p810
(dp811
g801
I0
sg802
g7
(g11
S'\x00\x00\x00\x00\x00\x00.@'
p812
tp813
Rp814
sg806
S'ver-1'
p815
sg808
S'1859-12-16 0:0:0.0'
p816
ssS'r3i1p1'
p817
(dp818
g801
I744
sg802
g7
(g11
S'\x00\x00\x00\x00\xc0\xcf\xd5@'
p819
tp820
Rp821
sg806
S'ver-1'
p822
sg808
S'1921-12-16 0:0:0.0'
p823
sssS'GISS-E2-H-CC'
p824
(dp825
S'r1i1p1'
p826
(dp827
S'time_indx'
p828
I192
sS'time_rel'
p829
g7
(g11
S'\x00\x00\x00\x00\x80\xdf\xb6@'
p830
tp831
Rp832
sS'ver'
p833
S'ver-v20120723'
p834
sS'time_comp'
p835
S'2097-1-16 12:0:0.0'
p836
sssS'CMCC-CESM'
p837
(dp838
S'r1i1p1'
p839
(dp840
S'time_indx'
p841
I2175
sS'time_rel'
p842
g7
(g11
S'\x00\x00\x00\x00p*\xf0@'
p843
tp844
Rp845
sS'ver'
p846
S'ver-v20120906'
p847
sS'time_comp'
p848
S'4505-4-16 0:0:0.0'
p849
sssS'MPI-ESM-LR'
p850
(dp851
S'r2i1p1'
p852
(dp853
S'time_indx'
p854
I10138
sS'time_rel'
p855
g7
(g11
S'\x00\x00\x00\x00\xa0\xd5\x12A'
p856
tp857
Rp858
sS'time_comp'
p859
S'2694-11-16 0:0:0.0'
p860
ssS'r1i1p1'
p861
(dp862
g854
I9505
sg855
g7
(g11
S'\x00\x00\x00\x00\x94\xa8\x11A'
p863
tp864
Rp865
sg859
S'2642-2-15 0:0:0.0'
p866
ssS'r3i1p1'
p867
(dp868
g854
I10010
sg855
g7
(g11
S'\x00\x00\x00\x00\xbe\x98\x12A'
p869
tp870
Rp871
sg859
S'2684-3-16 12:0:0.0'
p872
sssS'bcc-csm1-1'
p873
(dp874
S'r2i1p1'
p875
(dp876
S'time_indx'
p877
I3080
sS'time_rel'
p878
g7
(g11
S'\x00\x00\x00\x00 \xe0\xf6@'
p879
tp880
Rp881
sS'time_comp'
p882
S'257-9-16 0:0:0.0'
p883
ssS'r1i1p1'
p884
(dp885
g877
I5807
sg878
g7
(g11
S'\x00\x00\x00\x00$\x90\x05A'
p886
tp887
Rp888
sg882
S'484-12-16 12:0:0.0'
p889
ssS'r3i1p1'
p890
(dp891
g877
I5599
sg878
g7
(g11
S'\x00\x00\x00\x00l\xca\x04A'
p892
tp893
Rp894
sg882
S'467-8-16 12:0:0.0'
p895
sssS'CESM1-CAM5'
p896
(dp897
S'r2i1p1'
p898
(dp899
S'time_indx'
p900
I2772
sS'time_rel'
p901
g7
(g11
S'\x00\x00\x00\x00x\xad\xf4@'
p902
tp903
Rp904
sS'time_comp'
p905
S'232-1-16 12:0:0.0'
p906
ssS'r1i1p1'
p907
(dp908
g900
I2836
sg901
g7
(g11
S"\x00\x00\x00\x00\x08'\xf5@"
p909
tp910
Rp911
sg905
S'237-5-16 12:0:0.0'
p912
ssS'r3i1p1'
p913
(dp914
g900
I3803
sg901
g7
(g11
S'\x00\x00\x00\x00hU\xfc@'
p915
tp916
Rp917
sg905
S'317-12-16 12:0:0.0'
p918
sss.