ccollections
OrderedDict
p0
((lp1
(lp2
S'model'
p3
a(dp4
S'experiment'
p5
(dp6
S'rip'
p7
(dp8
S'branch_time_gregory'
p9
g9
sS'branch_time_comp'
p10
g10
sS'branch_time_relative'
p11
g11
sS'creation_date'
p12
S''
p13
sS'parent_exp_rip'
p14
S'parent_exp.rip'
p15
sS'valid'
p16
S'valid_method'
p17
sS'tracking_id'
p18
g13
sssaa(lp19
S'ACCESS1-0'
p20
a(dp21
S'historical'
p22
(dp23
S'r1i1p1'
p24
(dp25
g9
I300
sg10
S'0300-1-1 0:0:0.0'
p26
sg11
I109207
sg12
g13
sg14
S'piControl.r1i1p1'
p27
sg16
S'Gregory'
p28
sg18
g13
sssaa(lp29
S'ACCESS1-3'
p30
a(dp31
S'historical'
p32
(dp33
S'r2i1p1'
p34
(dp35
g9
I340
sg10
S'0340-1-1 0:0:0.0'
p36
sg11
I123816
sg12
g13
sg14
g27
sg16
g13
sg18
g13
ssS'r1i1p1'
p37
(dp38
g9
I250
sg10
S'0250-1-1 0:0:0.0'
p39
sg11
I90945
sg12
g13
sg14
g27
sg16
S'Gleckler'
p40
sg18
g13
ssS'r3i1p1'
p41
(dp42
g9
I550
sg10
S'0550-1-1 0:0:0.0'
p43
sg11
I200518
sg12
g13
sg14
g27
sg16
g13
sg18
g13
sssaa(lp44
S'BNU-ESM'
p45
a(dp46
S'historical'
p47
(dp48
S'r1i1p1'
p49
(dp50
g9
I1850
sg10
S'1850-1-1 0:0:0.0'
p51
sg11
g13
sg12
g13
sg14
g27
sg16
g40
sg18
g13
sssaa(lp52
S'CCSM4'
p53
a(dp54
S'historical'
p55
(dp56
S'r2i1p1'
p57
(dp58
g9
g13
sg10
S'1031-1-1 0:0:0.0'
p59
sg11
I376315
sg12
g13
sg14
g27
sg16
S'Gleckler; www.cesm.ucar.edu/CMIP5/errata/branch_times.html'
p60
sg18
g13
ssS'r1i1p1'
p61
(dp62
g9
I937
sg10
S'0937-1-1 0:0:0.0'
p63
sg11
I342005
sg12
g13
sg14
g27
sg16
S'Gregory; www.cesm.ucar.edu/CMIP5/errata/branch_times.html'
p64
sg18
g13
ssS'r4i1p1'
p65
(dp66
g9
g13
sg10
S'0893-1-1 0:0:0.0'
p67
sg11
I325945
sg12
g13
sg14
g27
sg16
g60
sg18
g13
ssS'r3i1p1'
p68
(dp69
g9
g13
sg10
S'0863-1-1 0:0:0.0'
p70
sg11
I314995
sg12
g13
sg14
g27
sg16
g60
sg18
g13
ssS'r6i1p1'
p71
(dp72
g9
g13
sg10
S'0953-1-1 0:0:0.0'
p73
sg11
I347845
sg12
g13
sg14
g27
sg16
g60
sg18
g13
ssS'r5i1p1'
p74
(dp75
g9
g13
sg10
S'0983-1-1 0:0:0.0'
p76
sg11
I358795
sg12
g13
sg14
g27
sg16
g60
sg18
g13
sssaa(lp77
S'CESM1-BGC'
p78
a(dp79
S'historical'
p80
(dp81
S'r1i1p1'
p82
(dp83
g9
g13
sg10
S'0151-1-1 0:0:0.0'
p84
sg11
I55115
sg12
g13
sg14
g27
sg16
S'Gary Strand (cesm_data@); www.cesm.ucar.edu/CMIP5/errata/branch_times.html'
p85
sg18
g13
sssaa(lp86
S'CESM1-CAM5'
p87
a(dp88
S'historical'
p89
(dp90
S'r2i1p1'
p91
(dp92
g9
g13
sg10
S'0232-1-1 0:0:0.0'
p93
sg11
I84680
sg12
g13
sg14
g27
sg16
g85
sg18
g13
ssS'r1i1p1'
p94
(dp95
g9
g13
sg10
S'0225-1-1 0:0:0.0'
p96
sg11
I82125
sg12
g13
sg14
g27
sg16
g85
sg18
g13
ssS'r3i1p1'
p97
(dp98
g9
g13
sg10
S'0320-1-1 0:0:0.0'
p99
sg11
I116800
sg12
g13
sg14
g27
sg16
g85
sg18
g13
sssaa(lp100
S'CESM1-CAM5-1-FV2'
p101
a(dp102
S'historical'
p103
(dp104
S'r2i1p1'
p105
(dp106
g9
g13
sg10
S'0070-1-1 0:0:0.0'
p107
sg11
g13
sg12
g13
sg14
g27
sg16
S'Gary Strand (cesm_data@); PNNL data so limited info available'
p108
sg18
g13
ssS'r1i1p1'
p109
(dp110
g9
g13
sg10
S'0102-1-1 0:0:0.0'
p111
sg11
g13
sg12
g13
sg14
g27
sg16
g108
sg18
g13
ssS'r4i1p1'
p112
(dp113
g9
g13
sg10
S'0052-1-1 0:0:0.0'
p114
sg11
g13
sg12
g13
sg14
g27
sg16
g108
sg18
g13
ssS'r3i1p1'
p115
(dp116
g9
g13
sg10
S'0051-1-1 0:0:0.0'
p117
sg11
g13
sg12
g13
sg14
g27
sg16
g108
sg18
g13
sssaa(lp118
S'CESM1-FASTCHEM'
p119
a(dp120
S'historical'
p121
(dp122
S'r2i1p1'
p123
(dp124
g9
g13
sg10
S'0150-1-1 0:0:0.0'
p125
sg11
I54750
sg12
g13
sg14
g27
sg16
g85
sg18
g13
ssS'r1i1p1'
p126
(dp127
g9
g13
sg10
S'0086-1-1 0:0:0.0'
p128
sg11
I31390
sg12
g13
sg14
g27
sg16
g85
sg18
g13
ssS'r3i1p1'
p129
(dp130
g9
g13
sg10
g39
sg11
I91250
sg12
g13
sg14
g27
sg16
g85
sg18
g13
sssaa(lp131
S'CESM1-WACCM'
p132
a(dp133
S'historical'
p134
(dp135
S'r2i1p1'
p136
(dp137
g9
g13
sg10
S'1955-1-1 0:0:0.0'
p138
sg11
I713575
sg12
g13
sg14
g27
sg16
g85
sg18
g13
ssS'r1i1p1'
p139
(dp140
g9
g13
sg10
S'0156-1-1 0:0:0.0'
p141
sg11
I56940
sg12
g13
sg14
g27
sg16
g85
sg18
g13
ssS'r4i1p1'
p142
(dp143
g9
g13
sg10
g138
sg11
I713575
sg12
g13
sg14
g27
sg16
g85
sg18
g13
ssS'r3i1p1'
p144
(dp145
g9
g13
sg10
g138
sg11
I713575
sg12
g13
sg14
g27
sg16
g85
sg18
g13
sssaa(lp146
S'CMCC-CESM'
p147
a(dp148
S'historical'
p149
(dp150
S'r1i1p1'
p151
(dp152
g9
g13
sg10
S'4324-1-1 0:0:0.0'
p153
sg11
g13
sg12
g13
sg14
g27
sg16
S'Gleckler - pathology in 2nd half of simulation'
p154
sg18
g13
sssaa(lp155
S'CMCC-CM'
p156
a(dp157
S'historical'
p158
(dp159
S'r1i1p1'
p160
(dp161
g9
I1849
sg10
S'1849-12-21 0:0:0.0'
p162
sg11
I109562
sg12
g13
sg14
g27
sg16
g40
sg18
g13
sssaa(lp163
S'CMCC-CMS'
p164
a(dp165
S'historical'
p166
(dp167
S'r1i1p1'
p168
(dp169
g9
I3684
sg10
S'3684-1-1 0:0:0.0'
p170
sg11
g13
sg12
g13
sg14
g27
sg16
g28
sg18
g13
sssaa(lp171
S'CNRM-CM5'
p172
a(dp173
S'historical'
p174
(dp175
S'r7i1p1'
p176
(dp177
g9
g13
sg10
S'2200-1-1 0:0:0.0'
p178
sg11
I127835
sg12
g13
sg14
g27
sg16
g40
sg18
g13
ssS'r9i1p1'
p179
(dp180
g9
g13
sg10
S'2300-1-2 0:0:0.0'
p181
sg11
I164359
sg12
g13
sg14
g27
sg16
g40
sg18
g13
ssS'r2i1p1'
p182
(dp183
g9
g13
sg10
S'1950-1-1 0:0:0.0'
p184
sg11
I36524
sg12
g13
sg14
g27
sg16
g40
sg18
g13
ssS'r1i1p1'
p185
(dp186
g9
I2250
sg10
S'2250-1-1 0:0:0.0'
p187
sg11
I146097
sg12
g13
sg14
g27
sg16
g40
sg18
g13
ssS'r10i1p1'
p188
(dp189
g9
g13
sg10
S'2350-1-1 0:0:0.0'
p190
sg11
I182621
sg12
g13
sg14
g27
sg16
g40
sg18
g13
ssS'r4i1p1'
p191
(dp192
g9
g13
sg10
S'2050-1-1 0:0:0.0'
p193
sg11
I73049
sg12
g13
sg14
g27
sg16
g40
sg18
g13
ssS'r3i1p1'
p194
(dp195
g9
g13
sg10
S'2000-1-2 0:0:0.0'
p196
sg11
I54787
sg12
g13
sg14
g27
sg16
g40
sg18
g13
ssS'r6i1p1'
p197
(dp198
g9
g13
sg10
S'2150-1-1 0:0:0.0'
p199
sg11
I109573
sg12
g13
sg14
g27
sg16
g40
sg18
g13
ssS'r5i1p1'
p200
(dp201
g9
g13
sg10
S'2100-1-1 0:0:0.0'
p202
sg11
I91311
sg12
g13
sg14
g27
sg16
g40
sg18
g13
ssS'r8i1p1'
p203
(dp204
g9
g13
sg10
g51
sg11
I0
sg12
g13
sg14
g27
sg16
g40
sg18
g13
sssaa(lp205
S'CSIRO-Mk3-6-0'
p206
a(dp207
S'historical'
p208
(dp209
S'r7i1p1'
p210
(dp211
g9
I153
sg10
S'0153-1-1 0:0:0.0'
p212
sg11
I55480
sg12
g13
sg14
g27
sg16
g28
sg18
g13
ssS'r9i1p1'
p213
(dp214
g9
I186
sg10
S'0186-1-1 0:0:0.0'
p215
sg11
I67525
sg12
g13
sg14
g27
sg16
g28
sg18
g13
ssS'r2i1p1'
p216
(dp217
g9
I92
sg10
S'0092-1-1 0:0:0.0'
p218
sg11
I33215
sg12
g13
sg14
g27
sg16
g28
sg18
g13
ssS'r1i1p1'
p219
(dp220
g9
I81
sg10
S'0081-1-1 0:0:0.0'
p221
sg11
I29200
sg12
g13
sg14
g27
sg16
g28
sg18
g13
ssS'r10i1p1'
p222
(dp223
g9
I200
sg10
S'0200-1-1 0:0:0.0'
p224
sg11
I72635
sg12
g13
sg14
g27
sg16
g28
sg18
g13
ssS'r4i1p1'
p225
(dp226
g9
I117
sg10
S'0117-1-1 0:0:0.0'
p227
sg11
I42340
sg12
g13
sg14
g27
sg16
g28
sg18
g13
ssS'r3i1p1'
p228
(dp229
g9
I104
sg10
S'0104-1-1 0:0:0.0'
p230
sg11
I37595
sg12
g13
sg14
g27
sg16
g28
sg18
g13
ssS'r6i1p1'
p231
(dp232
g9
I138
sg10
S'0138-1-1 0:0:0.0'
p233
sg11
I50005
sg12
g13
sg14
g27
sg16
g28
sg18
g13
ssS'r5i1p1'
p234
(dp235
g9
I127
sg10
S'0127-1-1 0:0:0.0'
p236
sg11
I45990
sg12
g13
sg14
g27
sg16
g28
sg18
g13
ssS'r8i1p1'
p237
(dp238
g9
I169
sg10
S'0169-1-1 0:0:0.0'
p239
sg11
I61320
sg12
g13
sg14
g27
sg16
g28
sg18
g13
sssaa(lp240
S'CanESM2'
p241
a(dp242
S'historical'
p243
(dp244
S'r2i1p1'
p245
(dp246
g9
I2271
sg10
S'2271-1-1 0:0:0.0'
p247
sg11
I153665
sg12
g13
sg14
g27
sg16
g40
sg18
g13
ssS'r1i1p1'
p248
(dp249
g9
I2321
sg10
S'2321-1-1 0:0:0.0'
p250
sg11
I171915
sg12
g13
sg14
g27
sg16
g40
sg18
g13
ssS'r4i1p1'
p251
(dp252
g9
I2171
sg10
S'2171-1-1 0:0:0.0'
p253
sg11
I117165
sg12
g13
sg14
g27
sg16
g40
sg18
g13
ssS'r3i1p1'
p254
(dp255
g9
I2221
sg10
S'2221-1-1 0:0:0.0'
p256
sg11
I135415
sg12
g13
sg14
g27
sg16
g40
sg18
g13
ssS'r5i1p1'
p257
(dp258
g9
I2121
sg10
S'2121-1-1 0:0:0.0'
p259
sg11
I98915
sg12
g13
sg14
g27
sg16
g40
sg18
g13
sssaa(lp260
S'EC-EARTH'
p261
a(dp262
S'historical'
p263
(dp264
S'r7i1p1'
p265
(dp266
g9
g13
sg10
S'2125-1-1 0:0:0.0'
p267
sg11
g13
sg12
g13
sg14
g27
sg16
g13
sg18
g13
ssS'r14i1p1'
p268
(dp269
g9
g13
sg10
g267
sg11
g13
sg12
g13
sg14
g27
sg16
g13
sg18
g13
ssS'r9i1p1'
p270
(dp271
g9
g13
sg10
g267
sg11
g13
sg12
g13
sg14
g27
sg16
g13
sg18
g13
ssS'r13i1p1'
p272
(dp273
g9
g13
sg10
g267
sg11
g13
sg12
g13
sg14
g27
sg16
g13
sg18
g13
ssS'r11i1p1'
p274
(dp275
g9
g13
sg10
g187
sg11
g13
sg12
g13
sg14
g27
sg16
g13
sg18
g13
ssS'r2i1p1'
p276
(dp277
g9
g13
sg10
g267
sg11
g13
sg12
g13
sg14
g27
sg16
g13
sg18
g13
ssS'r1i1p1'
p278
(dp279
g9
g13
sg10
g267
sg11
g13
sg12
g13
sg14
g27
sg16
g13
sg18
g13
ssS'r12i1p1'
p280
(dp281
g9
g13
sg10
g267
sg11
g13
sg12
g13
sg14
g27
sg16
g13
sg18
g13
ssS'r10i1p1'
p282
(dp283
g9
g13
sg10
g267
sg11
g13
sg12
g13
sg14
g27
sg16
g13
sg18
g13
ssS'r3i1p1'
p284
(dp285
g9
g13
sg10
g267
sg11
g13
sg12
g13
sg14
g27
sg16
g13
sg18
g13
ssS'r6i1p1'
p286
(dp287
g9
g13
sg10
g267
sg11
g13
sg12
g13
sg14
g27
sg16
g13
sg18
g13
ssS'r5i1p1'
p288
(dp289
g9
g13
sg10
g267
sg11
g13
sg12
g13
sg14
g27
sg16
g13
sg18
g13
ssS'r8i1p1'
p290
(dp291
g9
g13
sg10
g267
sg11
g13
sg12
g13
sg14
g27
sg16
g13
sg18
g13
sssaa(lp292
S'FGOALS-g2'
p293
a(dp294
S'historical'
p295
(dp296
S'r2i1p1'
p297
(dp298
g9
I500
sg10
S'0500-1-1 0:0:0.0'
p299
sg11
I182135
sg12
g13
sg14
g27
sg16
g28
sg18
g13
ssS'r4i1p1'
p300
(dp301
g9
I500
sg10
g43
sg11
I200385
sg12
g13
sg14
g27
sg16
g28
sg18
g13
ssS'r3i1p1'
p302
(dp303
g9
I520
sg10
S'0520-1-1 0:0:0.0'
p304
sg11
I189435
sg12
g13
sg14
g27
sg16
g28
sg18
g13
ssS'r5i1p1'
p305
(dp306
g9
I500
sg10
g299
sg11
I182135
sg12
g13
sg14
g27
sg16
g28
sg18
g13
sssaa(lp307
S'FGOALS-s2'
p308
a(dp309
S'1pctCO2'
p310
(dp311
S'r1i1p1'
p312
(dp313
g9
g13
sg10
g51
sg11
g13
sg12
g13
sg14
g27
sg16
S'Mark Zelinka 130509; baoqing@mail.iap.ac.cn'
p314
sg18
g13
sssS'historical'
p315
(dp316
S'r2i1p1'
p317
(dp318
g9
g13
sg10
S'1853-8-4 0:0:0.0'
p319
sg11
I1310
sg12
g13
sg14
g27
sg16
g40
sg18
g13
ssS'r1i1p1'
p320
(dp321
g9
I1853
sg10
S'1853-7-25 0:0:0.0'
p322
sg11
I1300
sg12
g13
sg14
g27
sg16
g40
sg18
g13
ssS'r3i1p1'
p323
(dp324
g9
g13
sg10
S'1853-8-14 0:0:0.0'
p325
sg11
I1320
sg12
g13
sg14
g27
sg16
g40
sg18
g13
sssS'abrupt4xCO2'
p326
(dp327
S'r1i1p1'
p328
(dp329
g9
g13
sg10
g51
sg11
g13
sg12
g13
sg14
g27
sg16
g314
sg18
g13
sssaa(lp330
S'FIO-ESM'
p331
a(dp332
S'historical'
p333
(dp334
S'r2i1p1'
p335
(dp336
g9
g13
sg10
S'0651-1-1 0:0:0.0'
p337
sg11
g13
sg12
g13
sg14
g27
sg16
g13
sg18
g13
ssS'r1i1p1'
p338
(dp339
g9
g13
sg10
S'0701-1-1 0:0:0.0'
p340
sg11
g13
sg12
g13
sg14
g27
sg16
g13
sg18
g13
ssS'r3i1p1'
p341
(dp342
g9
g13
sg10
S'0401-1-1 0:0:0.0'
p343
sg11
g13
sg12
g13
sg14
g27
sg16
g40
sg18
g13
sssaa(lp344
S'GFDL-CM3'
p345
a(dp346
S'historical'
p347
(dp348
S'r2i1p1'
p349
(dp350
g9
g13
sg10
g117
sg11
I18250
sg12
g13
sg14
g27
sg16
g40
sg18
g13
ssS'r1i1p1'
p351
(dp352
g9
g13
sg10
S'0001-1-1 0:0:0.0'
p353
sg11
I0
sg12
g13
sg14
g27
sg16
g40
sg18
g13
ssS'r4i1p1'
p354
(dp355
g9
g13
sg10
g84
sg11
I54750
sg12
g13
sg14
g27
sg16
g40
sg18
g13
ssS'r3i1p1'
p356
(dp357
g9
g13
sg10
S'0101-1-1 0:0:0.0'
p358
sg11
I36500
sg12
g13
sg14
g27
sg16
g40
sg18
g13
ssS'r5i1p1'
p359
(dp360
g9
g13
sg10
S'0201-1-1 0:0:0.0'
p361
sg11
I73000
sg12
g13
sg14
g27
sg16
g40
sg18
g13
sssaa(lp362
S'GFDL-ESM2M'
p363
a(dp364
S'historical'
p365
(dp366
S'r1i1p1'
p367
(dp368
g9
g13
sg10
S'0162-1-1 0:0:0.0'
p369
sg11
g13
sg12
g13
sg14
S'historicalMisc.r1i1p1'
p370
sg16
g28
sg18
g13
sssaa(lp371
S'GISS-E2-H-CC'
p372
a(dp373
S'historical'
p374
(dp375
S'r1i1p1'
p376
(dp377
g9
I2081
sg10
S'2081-1-1 0:0:0.0'
p378
sg11
g13
sg12
g13
sg14
g27
sg16
g40
sg18
g13
sssaa(lp379
S'GISS-E2-H'
p380
a(dp381
S'1pctCO2'
p382
(dp383
S'r1i1p3'
p384
(dp385
g9
g13
sg10
S'2810-1-1 0:0:0.0'
p386
sg11
g13
sg12
g13
sg14
g27
sg16
S'Mark Zelinka 130506; kwok-wai.lo@nasa.gov'
p387
sg18
g13
ssS'r1i1p2'
p388
(dp389
g9
g13
sg10
g386
sg11
g13
sg12
g13
sg14
g27
sg16
g387
sg18
g13
ssS'r1i1p1'
p390
(dp391
g9
g13
sg10
S'2410-1-1 0:0:0.0'
p392
sg11
g13
sg12
g13
sg14
g27
sg16
g387
sg18
g13
sssS'historical'
p393
(dp394
S'r1i1p3'
p395
(dp396
g9
g13
sg10
S'2490-1-1 0:0:0.0'
p397
sg11
g13
sg12
g13
sg14
S'piControl.r1i1p3'
p398
sg16
g13
sg18
g13
ssS'r1i1p2'
p399
(dp400
g9
g13
sg10
g397
sg11
g13
sg12
g13
sg14
S'piControl.r1i1p2'
p401
sg16
g13
sg18
g13
ssS'r1i1p1'
p402
(dp403
g9
g13
sg10
g392
sg11
g13
sg12
g13
sg14
g27
sg16
g40
sg18
g13
ssS'r2i1p3'
p404
(dp405
g9
g13
sg10
S'2510-1-1 0:0:0.0'
p406
sg11
g13
sg12
g13
sg14
g398
sg16
g13
sg18
g13
ssS'r5i1p2'
p407
(dp408
g9
g13
sg10
S'2570-1-1 0:0:0.0'
p409
sg11
g13
sg12
g13
sg14
g401
sg16
g13
sg18
g13
ssS'r5i1p3'
p410
(dp411
g9
g13
sg10
g409
sg11
g13
sg12
g13
sg14
g398
sg16
g13
sg18
g13
ssS'r5i1p1'
p412
(dp413
g9
g13
sg10
g397
sg11
g13
sg12
g13
sg14
g27
sg16
g40
sg18
g13
ssS'r2i1p1'
p414
(dp415
g9
g13
sg10
S'2430-1-1 0:0:0.0'
p416
sg11
g13
sg12
g13
sg14
g27
sg16
g40
sg18
g13
ssS'r4i1p2'
p417
(dp418
g9
g13
sg10
S'2550-1-1 0:0:0.0'
p419
sg11
g13
sg12
g13
sg14
g401
sg16
g13
sg18
g13
ssS'r4i1p3'
p420
(dp421
g9
g13
sg10
g419
sg11
g13
sg12
g13
sg14
g398
sg16
g13
sg18
g13
ssS'r4i1p1'
p422
(dp423
g9
g13
sg10
S'2470-1-1 0:0:0.0'
p424
sg11
g13
sg12
g13
sg14
g27
sg16
g40
sg18
g13
ssS'r3i1p1'
p425
(dp426
g9
g13
sg10
S'2450-1-1 0:0:0.0'
p427
sg11
g13
sg12
g13
sg14
g27
sg16
g40
sg18
g13
ssS'r2i1p2'
p428
(dp429
g9
g13
sg10
g406
sg11
g13
sg12
g13
sg14
g401
sg16
g13
sg18
g13
ssS'r3i1p3'
p430
(dp431
g9
g13
sg10
S'2530-1-1 0:0:0.0'
p432
sg11
g13
sg12
g13
sg14
g398
sg16
g13
sg18
g13
ssS'r3i1p2'
p433
(dp434
g9
g13
sg10
g432
sg11
g13
sg12
g13
sg14
g401
sg16
g13
sg18
g13
sssS'abrupt4xCO2'
p435
(dp436
S'r1i1p3'
p437
(dp438
g9
g13
sg10
g386
sg11
g13
sg12
g13
sg14
g27
sg16
g387
sg18
g13
ssS'r1i1p2'
p439
(dp440
g9
g13
sg10
g386
sg11
g13
sg12
g13
sg14
g27
sg16
g387
sg18
g13
sssaa(lp441
S'GISS-E2-R-CC'
p442
a(dp443
S'historical'
p444
(dp445
S'r1i1p1'
p446
(dp447
g9
g13
sg10
g193
sg11
g13
sg12
g13
sg14
g27
sg16
g13
sg18
g13
sssaa(lp448
S'GISS-E2-R'
p449
a(dp450
S'1pctCO2'
p451
(dp452
S'r1i1p1'
p453
(dp454
g9
g13
sg10
S'3981-1-1 0:0:0.0'
p455
sg11
g13
sg12
g13
sg14
g27
sg16
g387
sg18
g13
sssS'historical'
p456
(dp457
S'r1i1p3'
p458
(dp459
g9
g13
sg10
S'3560-1-1 0:0:0.0'
p460
sg11
g13
sg12
g13
sg14
g27
sg16
g13
sg18
g13
ssS'r1i1p2'
p461
(dp462
g9
g13
sg10
S'3590-1-1 0:0:0.0'
p463
sg11
g13
sg12
g13
sg14
g27
sg16
g13
sg18
g13
ssS'r1i1p1'
p464
(dp465
g9
g13
sg10
g455
sg11
g13
sg12
g13
sg14
g27
sg16
g40
sg18
g13
ssS'r2i1p3'
p466
(dp467
g9
g13
sg10
S'3580-1-1 0:0:0.0'
p468
sg11
g13
sg12
g13
sg14
g27
sg16
g13
sg18
g13
ssS'r6i1p1'
p469
(dp470
g9
g13
sg10
S'4081-1-1 0:0:0.0'
p471
sg11
g13
sg12
g13
sg14
g27
sg16
g13
sg18
g13
ssS'r5i1p2'
p472
(dp473
g9
g13
sg10
S'3670-1-1 0:0:0.0'
p474
sg11
g13
sg12
g13
sg14
g27
sg16
g13
sg18
g13
ssS'r5i1p3'
p475
(dp476
g9
g13
sg10
S'3640-1-1 0:0:0.0'
p477
sg11
g13
sg12
g13
sg14
g27
sg16
g13
sg18
g13
ssS'r6i1p3'
p478
(dp479
g9
g13
sg10
S'3660-1-1 0:0:0.0'
p480
sg11
g13
sg12
g13
sg14
g27
sg16
g13
sg18
g13
ssS'r5i1p1'
p481
(dp482
g9
g13
sg10
S'4061-1-1 0:0:0.0'
p483
sg11
g13
sg12
g13
sg14
g27
sg16
g40
sg18
g13
ssS'r6i1p2'
p484
(dp485
g9
g13
sg10
S'3690-1-1 0:0:0.0'
p486
sg11
g13
sg12
g13
sg14
g27
sg16
g13
sg18
g13
ssS'r2i1p1'
p487
(dp488
g9
g13
sg10
S'4001-1-1 0:0:0.0'
p489
sg11
g13
sg12
g13
sg14
g27
sg16
g40
sg18
g13
ssS'r4i1p2'
p490
(dp491
g9
g13
sg10
S'3650-1-1 0:0:0.0'
p492
sg11
g13
sg12
g13
sg14
g27
sg16
g13
sg18
g13
ssS'r4i1p3'
p493
(dp494
g9
g13
sg10
S'3620-1-1 0:0:0.0'
p495
sg11
g13
sg12
g13
sg14
g27
sg16
g13
sg18
g13
ssS'r4i1p1'
p496
(dp497
g9
g13
sg10
S'4041-1-1 0:0:0.0'
p498
sg11
g13
sg12
g13
sg14
g27
sg16
g40
sg18
g13
ssS'r3i1p1'
p499
(dp500
g9
g13
sg10
S'4021-1-1 0:0:0.0'
p501
sg11
g13
sg12
g13
sg14
g27
sg16
g40
sg18
g13
ssS'r2i1p2'
p502
(dp503
g9
g13
sg10
S'3610-1-1 0:0:0.0'
p504
sg11
g13
sg12
g13
sg14
g27
sg16
g13
sg18
g13
ssS'r3i1p3'
p505
(dp506
g9
g13
sg10
S'3600-1-1 0:0:0.0'
p507
sg11
g13
sg12
g13
sg14
g27
sg16
g13
sg18
g13
ssS'r3i1p2'
p508
(dp509
g9
g13
sg10
S'3630-1-1 0:0:0.0'
p510
sg11
g13
sg12
g13
sg14
g27
sg16
g13
sg18
g13
sssaa(lp511
S'HadGEM2-AO'
p512
a(dp513
S'historical'
p514
(dp515
S'r1i1p1'
p516
(dp517
g9
g13
sg10
S'BLANK'
p518
sg11
g13
sg12
g13
sg14
g27
sg16
g13
sg18
g13
sssaa(lp519
S'HadGEM2-CC'
p520
a(dp521
S'historical'
p522
(dp523
S'r2i1p1'
p524
(dp525
g9
g13
sg10
S'1959-12-21 0:0:0.0'
p526
sg11
I36020
sg12
g13
sg14
g27
sg16
g40
sg18
g13
ssS'r1i1p1'
p527
(dp528
g9
I1859
sg10
S'1859-12-1 0:0:0.0'
p529
sg11
I0
sg12
g13
sg14
g27
sg16
g40
sg18
g13
ssS'r3i1p1'
p530
(dp531
g9
g13
sg10
S'1959-12-11 0:0:0.0'
p532
sg11
I36010
sg12
g13
sg14
g27
sg16
g40
sg18
g13
sssaa(lp533
S'HadGEM2-ES'
p534
a(dp535
S'historical'
p536
(dp537
S'r2i1p1'
p538
(dp539
g9
I1909
sg10
S'1909-12-1 0:0:0.0'
p540
sg11
I18000
sg12
g13
sg14
g27
sg16
g28
sg18
g13
ssS'r1i1p1'
p541
(dp542
g9
I1859
sg10
g529
sg11
I0
sg12
g13
sg14
g27
sg16
g40
sg18
g13
ssS'r4i1p1'
p543
(dp544
g9
I2009
sg10
S'2009-12-1 0:0:0.0'
p545
sg11
I54000
sg12
g13
sg14
g27
sg16
g28
sg18
g13
ssS'r3i1p1'
p546
(dp547
g9
I1859
sg10
S'1959-12-1 0:0:0.0'
p548
sg11
I36000
sg12
g13
sg14
g27
sg16
g40
sg18
g13
sssaa(lp549
S'IPSL-CM5A-LR'
p550
a(dp551
S'1pctCO2'
p552
(dp553
S'r1i1p1'
p554
(dp555
g9
I1850
sg10
g51
sg11
g13
sg12
g13
sg14
g27
sg16
S'Mark Zelinka 130507; sebastian.denvil@ipsl.jussieu.fr'
p556
sg18
g13
sssS'historical'
p557
(dp558
S'r2i1p1'
p559
(dp560
g9
I1860
sg10
S'1860-1-1 0:0:0.0'
p561
sg11
g13
sg12
g13
sg14
g27
sg16
g28
sg18
g13
ssS'r1i1p1'
p562
(dp563
g9
I1850
sg10
g51
sg11
g13
sg12
g13
sg14
g27
sg16
g28
sg18
g13
ssS'r4i1p1'
p564
(dp565
g9
I1985
sg10
S'1985-1-1 0:0:0.0'
p566
sg11
g13
sg12
g13
sg14
g27
sg16
g28
sg18
g13
ssS'r3i1p1'
p567
(dp568
g9
I1870
sg10
S'1870-1-1 0:0:0.0'
p569
sg11
g13
sg12
g13
sg14
g27
sg16
g28
sg18
g13
ssS'r6i1p1'
p570
(dp571
g9
g13
sg10
S'2010-1-1 0:0:0.0'
p572
sg11
g13
sg12
g13
sg14
g27
sg16
g13
sg18
g13
ssS'r5i1p1'
p573
(dp574
g9
g13
sg10
S'2000-1-1 0:0:0.0'
p575
sg11
g13
sg12
g13
sg14
g27
sg16
g13
sg18
g13
sssaa(lp576
S'IPSL-CM5A-MR'
p577
a(dp578
S'1pctCO2'
p579
(dp580
S'r1i1p1'
p581
(dp582
g9
I1850
sg10
g51
sg11
g13
sg12
g13
sg14
g27
sg16
g556
sg18
g13
sssS'historical'
p583
(dp584
S'r2i1p1'
p585
(dp586
g9
g13
sg10
g561
sg11
g13
sg12
g13
sg14
g27
sg16
g40
sg18
g13
ssS'r1i1p1'
p587
(dp588
g9
I1850
sg10
g51
sg11
g13
sg12
g13
sg14
g27
sg16
g28
sg18
g13
ssS'r3i1p1'
p589
(dp590
g9
g13
sg10
g569
sg11
g13
sg12
g13
sg14
g27
sg16
g40
sg18
g13
sssaa(lp591
S'IPSL-CM5B-LR'
p592
a(dp593
S'1pctCO2'
p594
(dp595
S'r1i1p1'
p596
(dp597
g9
g13
sg10
g51
sg11
g13
sg12
g13
sg14
g27
sg16
g556
sg18
g13
sssS'historical'
p598
(dp599
S'r1i1p1'
p600
(dp601
g9
I1850
sg10
g51
sg11
g13
sg12
g13
sg14
g27
sg16
g40
sg18
g13
sssaa(lp602
S'MIROC-ESM-CHEM'
p603
a(dp604
S'historical'
p605
(dp606
S'r1i1p1'
p607
(dp608
g9
I1850
sg10
g51
sg11
I1461
sg12
g13
sg14
g27
sg16
g28
sg18
g13
sssaa(lp609
S'MIROC-ESM'
p610
a(dp611
S'historical'
p612
(dp613
S'r2i1p1'
p614
(dp615
g9
g13
sg10
S'1820-1-1 0:0:0.0'
p616
sg11
I7304
sg12
g13
sg14
g27
sg16
g40
sg18
g13
ssS'r1i1p1'
p617
(dp618
g9
I1880
sg10
S'1880-1-1 0:0:0.0'
p619
sg11
I29219
sg12
g13
sg14
g27
sg16
g40
sg18
g13
ssS'r3i1p1'
p620
(dp621
g9
g13
sg10
g51
sg11
I18262
sg12
g13
sg14
g27
sg16
g40
sg18
g13
sssaa(lp622
S'MIROC4h'
p623
a(dp624
S'historical'
p625
(dp626
S'r2i1p1'
p627
(dp628
g9
I71
sg10
S'0071-1-1 0:0:0.0'
p629
sg11
I7300
sg12
g13
sg14
g27
sg16
g40
sg18
g13
ssS'r1i1p1'
p630
(dp631
g9
I91
sg10
S'0091-1-1 0:0:0.0'
p632
sg11
I14600
sg12
g13
sg14
g27
sg16
g40
sg18
g13
ssS'r3i1p1'
p633
(dp634
g9
I111
sg10
S'0111-1-1 0:0:0.0'
p635
sg11
I21900
sg12
g13
sg14
g27
sg16
g40
sg18
g13
sssaa(lp636
S'MIROC5'
p637
a(dp638
S'historical'
p639
(dp640
S'r2i1p1'
p641
(dp642
g9
I2081
sg10
g378
sg11
I29565
sg12
g13
sg14
g27
sg16
g40
sg18
g13
ssS'r1i1p1'
p643
(dp644
g9
I2411
sg10
S'2411-1-1 0:0:0.0'
p645
sg11
I150015
sg12
g13
sg14
g27
sg16
g28
sg18
g13
ssS'r4i1p1'
p646
(dp647
g9
g13
sg10
S'2281-1-1 0:0:0.0'
p648
sg11
I102565
sg12
g13
sg14
g27
sg16
g40
sg18
g13
ssS'r3i1p1'
p649
(dp650
g9
I2181
sg10
S'2181-1-1 0:0:0.0'
p651
sg11
I66065
sg12
g13
sg14
g27
sg16
g40
sg18
g13
ssS'r5i1p1'
p652
(dp653
g9
g13
sg10
S'2021-1-1 0:0:0.0'
p654
sg11
I7665
sg12
g13
sg14
g27
sg16
g40
sg18
g13
sssaa(lp655
S'MPI-ESM-LR'
p656
a(dp657
S'historical'
p658
(dp659
S'r2i1p1'
p660
(dp661
g9
I1980
sg10
S'1980-1-1 0:0:0.0'
p662
sg11
I47481
sg12
g13
sg14
g27
sg16
g28
sg18
g13
ssS'r1i1p1'
p663
(dp664
g9
I1880
sg10
g619
sg11
I10957
sg12
g13
sg14
g27
sg16
g28
sg18
g13
ssS'r3i1p1'
p665
(dp666
g9
I1921
sg10
S'1921-1-1 0:0:0.0'
p667
sg11
I25932
sg12
g13
sg14
g27
sg16
g28
sg18
g13
sssaa(lp668
S'MPI-ESM-MR'
p669
a(dp670
S'historical'
p671
(dp672
S'r2i1p1'
p673
(dp674
g9
I1901
sg10
S'1901-1-1 0:0:0.0'
p675
sg11
I18627
sg12
g13
sg14
g27
sg16
g28
sg18
g13
ssS'r1i1p1'
p676
(dp677
g9
I1850
sg10
g51
sg11
I0
sg12
g13
sg14
g27
sg16
g28
sg18
g13
ssS'r3i1p1'
p678
(dp679
g9
I1966
sg10
S'1966-1-1 0:0:0.0'
p680
sg11
I42368
sg12
g13
sg14
g27
sg16
g28
sg18
g13
sssaa(lp681
S'MPI-ESM-P'
p682
a(dp683
S'historical'
p684
(dp685
S'r2i1p1'
p686
(dp687
g9
I1850
sg10
g51
sg11
I0
sg12
g13
sg14
g27
sg16
g28
sg18
g13
sssaa(lp688
S'MRI-CGCM3'
p689
a(dp690
S'historical'
p691
(dp692
S'r4i1p2'
p693
(dp694
g9
I1890
sg10
S'1890-1-1 0:0:0.0'
p695
sg11
I14245
sg12
g13
sg14
g27
sg16
g28
sg18
g13
ssS'r2i1p1'
p696
(dp697
g9
I1980
sg10
g662
sg11
I47116
sg12
g13
sg14
g27
sg16
g28
sg18
g13
ssS'r1i1p1'
p698
(dp699
g9
I1950
sg10
g184
sg11
I36159
sg12
g13
sg14
g27
sg16
g28
sg18
g13
ssS'r3i1p1'
p700
(dp701
g9
I2010
sg10
g572
sg11
I58074
sg12
g13
sg14
g27
sg16
g28
sg18
g13
ssS'r5i1p2'
p702
(dp703
g9
I1920
sg10
S'1920-1-1 0:0:0.0'
p704
sg11
I25201
sg12
g13
sg14
g27
sg16
g28
sg18
g13
sssaa(lp705
S'NorESM1-M'
p706
a(dp707
S'historical'
p708
(dp709
S'r2i1p1'
p710
(dp711
g9
I730
sg10
S'0730-1-1 0:0:0.0'
p712
sg11
I266085
sg12
g13
sg14
g27
sg16
g28
sg18
g13
ssS'r1i1p1'
p713
(dp714
g9
I700
sg10
S'0700-1-1 0:0:0.0'
p715
sg11
I255135
sg12
g13
sg14
g27
sg16
g28
sg18
g13
ssS'r3i1p1'
p716
(dp717
g9
I760
sg10
S'0760-1-1 0:0:0.0'
p718
sg11
I277035
sg12
g13
sg14
g27
sg16
g28
sg18
g13
sssaa(lp719
S'NorESM1-ME'
p720
a(dp721
S'historical'
p722
(dp723
S'r1i1p1'
p724
(dp725
g9
g13
sg10
S'0901-1-1 0:0:0.0'
p726
sg11
I0
sg12
g13
sg14
g27
sg16
g13
sg18
g13
sssaa(lp727
S'bcc-csm1-1-m'
p728
a(dp729
S'1pctCO2'
p730
(dp731
S'r1i1p1'
p732
(dp733
g9
g13
sg10
S'0240-1-1 0:0:0.0'
p734
sg11
g13
sg12
g13
sg14
g27
sg16
S'Mark Zelinka 130503'
p735
sg18
g13
sssS'historical'
p736
(dp737
S'r2i1p1'
p738
(dp739
g9
g13
sg10
S'0270-1-1 0:0:0.0'
p740
sg11
g13
sg12
g13
sg14
g27
sg16
g13
sg18
g13
ssS'r1i1p1'
p741
(dp742
g9
g13
sg10
S'0344-1-1 0:0:0.0'
p743
sg11
g13
sg12
g13
sg14
g27
sg16
g13
sg18
g13
ssS'r3i1p1'
p744
(dp745
g9
g13
sg10
g26
sg11
g13
sg12
g13
sg14
g27
sg16
g13
sg18
g13
sssaa(lp746
S'bcc-csm1-1'
p747
a(dp748
S'1pctCO2'
p749
(dp750
S'r1i1p1'
p751
(dp752
g9
g13
sg10
S'0160-1-1 0:0:0.0'
p753
sg11
g13
sg12
g13
sg14
g27
sg16
g735
sg18
g13
sssS'historical'
p754
(dp755
S'r2i1p1'
p756
(dp757
g9
I160
sg10
g753
sg11
g13
sg12
g13
sg14
g27
sg16
g28
sg18
g13
ssS'r1i1p1'
p758
(dp759
g9
I470
sg10
S'0470-1-1 0:0:0.0'
p760
sg11
g13
sg12
g13
sg14
g27
sg16
g40
sg18
g13
ssS'r3i1p1'
p761
(dp762
g9
I460
sg10
S'0460-1-1 0:0:0.0'
p763
sg11
g13
sg12
g13
sg14
g27
sg16
g40
sg18
g13
sssaa(lp764
S'inmcm4'
p765
a(dp766
S'historical'
p767
(dp768
S'r1i1p1'
p769
(dp770
g9
I1850
sg10
g51
sg11
g13
sg12
g13
sg14
g27
sg16
g28
sg18
g13
sssaatp771
Rp772
.